; Function Attrs: mustprogress uwtable
define hidden noundef zeroext i1 @_ZN2qe16i_solver_context11is_relevantclEP4expr(ptr nocapture noundef nonnull readonly align 8 dereferenceable(16) %this, ptr noundef %e) unnamed_addr #3 align 2 {
entry:
  %m_s = getelementptr inbounds i8, ptr %this, i64 8
  %0 = load ptr, ptr %m_s, align 8
  %vtable4 = load ptr, ptr %0, align 8
  %vfn5 = getelementptr inbounds i8, ptr %vtable4, i64 40
  %1 = load ptr, ptr %vfn5, align 8
  %call6 = tail call noundef i32 %1(ptr noundef nonnull align 8 dereferenceable(48) %0)
  %cmp7.not = icmp eq i32 %call6, 0
  br i1 %cmp7.not, label %return, label %for.body

for.cond:                                         ; preds = %for.body
  %inc = add nuw i32 %i.08, 1
  %2 = load ptr, ptr %m_s, align 8
  %vtable = load ptr, ptr %2, align 8
  %vfn = getelementptr inbounds i8, ptr %vtable, i64 40
  %3 = load ptr, ptr %vfn, align 8
  %call = tail call noundef i32 %3(ptr noundef nonnull align 8 dereferenceable(48) %2)
  %cmp = icmp ult i32 %inc, %call
  br i1 %cmp, label %for.body, label %return, !llvm.loop !24

for.body:                                         ; preds = %entry, %for.cond
  %i.08 = phi i32 [ %inc, %for.cond ], [ 0, %entry ]
  %4 = load ptr, ptr %m_s, align 8
  %vtable3 = load ptr, ptr %4, align 8
  %vfn4 = getelementptr inbounds i8, ptr %vtable3, i64 72
  %5 = load ptr, ptr %vfn4, align 8
  %call5 = tail call noundef nonnull align 8 dereferenceable(176) ptr %5(ptr noundef nonnull align 8 dereferenceable(48) %4, i32 noundef %i.08)
  %m_check.i = getelementptr inbounds i8, ptr %call5, i64 32
  %call.i = tail call noundef zeroext i1 @_ZN10check_predclEP4expr(ptr noundef nonnull align 8 dereferenceable(137) %m_check.i, ptr noundef %e)
  br i1 %call.i, label %return, label %for.cond

return:                                           ; preds = %for.body, %for.cond, %entry
  %cmp.lcssa = phi i1 [ false, %entry ], [ %call.i, %for.cond ], [ %call.i, %for.body ]
  ret i1 %cmp.lcssa
}